target datalayout = "e-m:e-p270:32:32-p271:32:32-p272:64:64-i64:64-i128:128-f80:128-n8:16:32:64-S128"
target triple = "x86_64-pc-linux-gnu"

%struct.hmac_data_st = type { ptr, ptr, %struct.PROV_DIGEST, ptr, i64, i64, [13 x i8], i32, [64 x i8], i64 }
%struct.PROV_DIGEST = type { ptr, ptr, ptr }

@.str = private unnamed_addr constant [54 x i8] c"../openssl/providers/implementations/macs/hmac_prov.c\00", align 1

; Function Attrs: nounwind uwtable
define internal i32 @hmac_setkey(ptr noundef %0, ptr noundef %1, i64 noundef %2) #0 {
  %4 = alloca i32, align 4
  %5 = alloca ptr, align 8
  %6 = alloca ptr, align 8
  %7 = alloca i64, align 8
  %8 = alloca ptr, align 8
  %9 = alloca i32, align 4
  store ptr %0, ptr %5, align 8, !tbaa !7
  store ptr %1, ptr %6, align 8, !tbaa !23
  store i64 %2, ptr %7, align 8, !tbaa !24
  call void @llvm.lifetime.start.p0(i64 8, ptr %8) #6
  %10 = load ptr, ptr %5, align 8, !tbaa !7
  %11 = getelementptr inbounds nuw %struct.hmac_data_st, ptr %10, i32 0, i32 3
  %12 = load ptr, ptr %11, align 8, !tbaa !27
  %13 = icmp ne ptr %12, null
  br i1 %13, label %14, label %21

14:                                               ; preds = %3
  %15 = load ptr, ptr %5, align 8, !tbaa !7
  %16 = getelementptr inbounds nuw %struct.hmac_data_st, ptr %15, i32 0, i32 3
  %17 = load ptr, ptr %16, align 8, !tbaa !27
  %18 = load ptr, ptr %5, align 8, !tbaa !7
  %19 = getelementptr inbounds nuw %struct.hmac_data_st, ptr %18, i32 0, i32 4
  %20 = load i64, ptr %19, align 8, !tbaa !28
  call void @CRYPTO_secure_clear_free(ptr noundef %17, i64 noundef %20, ptr noundef @.str, i32 noundef 181)
  br label %21

21:                                               ; preds = %14, %3
  %22 = load i64, ptr %7, align 8, !tbaa !24
  %23 = icmp ugt i64 %22, 0
  br i1 %23, label %24, label %26

24:                                               ; preds = %21
  %25 = load i64, ptr %7, align 8, !tbaa !24
  br label %27

26:                                               ; preds = %21
  br label %27

27:                                               ; preds = %26, %24
  %28 = phi i64 [ %25, %24 ], [ 1, %26 ]
  %29 = call noalias ptr @CRYPTO_secure_malloc(i64 noundef %28, ptr noundef @.str, i32 noundef 183)
  %30 = load ptr, ptr %5, align 8, !tbaa !7
  %31 = getelementptr inbounds nuw %struct.hmac_data_st, ptr %30, i32 0, i32 3
  store ptr %29, ptr %31, align 8, !tbaa !27
  %32 = load ptr, ptr %5, align 8, !tbaa !7
  %33 = getelementptr inbounds nuw %struct.hmac_data_st, ptr %32, i32 0, i32 3
  %34 = load ptr, ptr %33, align 8, !tbaa !27
  %35 = icmp eq ptr %34, null
  br i1 %35, label %36, label %37

36:                                               ; preds = %27
  store i32 0, ptr %4, align 4
  store i32 1, ptr %9, align 4
  br label %72

37:                                               ; preds = %27
  %38 = load ptr, ptr %5, align 8, !tbaa !7
  %39 = getelementptr inbounds nuw %struct.hmac_data_st, ptr %38, i32 0, i32 3
  %40 = load ptr, ptr %39, align 8, !tbaa !27
  %41 = load ptr, ptr %6, align 8, !tbaa !23
  %42 = load i64, ptr %7, align 8, !tbaa !24
  call void @llvm.memcpy.p0.p0.i64(ptr align 1 %40, ptr align 1 %41, i64 %42, i1 false)
  %43 = load i64, ptr %7, align 8, !tbaa !24
  %44 = load ptr, ptr %5, align 8, !tbaa !7
  %45 = getelementptr inbounds nuw %struct.hmac_data_st, ptr %44, i32 0, i32 4
  store i64 %43, ptr %45, align 8, !tbaa !28
  %46 = load ptr, ptr %5, align 8, !tbaa !7
  %47 = getelementptr inbounds nuw %struct.hmac_data_st, ptr %46, i32 0, i32 2
  %48 = call ptr @ossl_prov_digest_md(ptr noundef %47)
  store ptr %48, ptr %8, align 8, !tbaa !21
  %49 = load ptr, ptr %6, align 8, !tbaa !23
  %50 = icmp ne ptr %49, null
  br i1 %50, label %59, label %51

51:                                               ; preds = %37
  %52 = load ptr, ptr %5, align 8, !tbaa !7
  %53 = getelementptr inbounds nuw %struct.hmac_data_st, ptr %52, i32 0, i32 5
  %54 = load i64, ptr %53, align 8, !tbaa !31
  %55 = icmp eq i64 %54, 0
  br i1 %55, label %56, label %71

56:                                               ; preds = %51
  %57 = load ptr, ptr %8, align 8, !tbaa !21
  %58 = icmp ne ptr %57, null
  br i1 %58, label %59, label %71

59:                                               ; preds = %56, %37
  %60 = load ptr, ptr %5, align 8, !tbaa !7
  %61 = getelementptr inbounds nuw %struct.hmac_data_st, ptr %60, i32 0, i32 1
  %62 = load ptr, ptr %61, align 8, !tbaa !9
  %63 = load ptr, ptr %6, align 8, !tbaa !23
  %64 = load i64, ptr %7, align 8, !tbaa !24
  %65 = trunc i64 %64 to i32
  %66 = load ptr, ptr %8, align 8, !tbaa !21
  %67 = load ptr, ptr %5, align 8, !tbaa !7
  %68 = getelementptr inbounds nuw %struct.hmac_data_st, ptr %67, i32 0, i32 2
  %69 = call ptr @ossl_prov_digest_engine(ptr noundef %68)
  %70 = call i32 @HMAC_Init_ex(ptr noundef %62, ptr noundef %63, i32 noundef %65, ptr noundef %66, ptr noundef %69)
  store i32 %70, ptr %4, align 4
  store i32 1, ptr %9, align 4
  br label %72

71:                                               ; preds = %56, %51
  store i32 1, ptr %4, align 4
  store i32 1, ptr %9, align 4
  br label %72

72:                                               ; preds = %71, %59, %36
  call void @llvm.lifetime.end.p0(i64 8, ptr %8) #6
  %73 = load i32, ptr %4, align 4
  ret i32 %73
}