; Function Attrs: nounwind uwtable
define internal fastcc i32 @hmac_setkey(ptr noundef %0, ptr noundef %1, i64 noundef %2) unnamed_addr #0 {
  %4 = getelementptr inbounds nuw i8, ptr %0, i64 40
  %5 = load ptr, ptr %4, align 8, !tbaa !25
  %.not = icmp eq ptr %5, null
  br i1 %.not, label %9, label %6

6:                                                ; preds = %3
  %7 = getelementptr inbounds nuw i8, ptr %0, i64 48
  %8 = load i64, ptr %7, align 8, !tbaa !26
  tail call void @CRYPTO_secure_clear_free(ptr noundef nonnull %5, i64 noundef %8, ptr noundef nonnull @.str, i32 noundef 181) #7
  br label %9

9:                                                ; preds = %6, %3
  %10 = tail call i64 @llvm.umax.i64(i64 %2, i64 1)
  %11 = tail call noalias ptr @CRYPTO_secure_malloc(i64 noundef %10, ptr noundef nonnull @.str, i32 noundef 183) #7
  store ptr %11, ptr %4, align 8, !tbaa !25
  %12 = icmp eq ptr %11, null
  br i1 %12, label %28, label %13

13:                                               ; preds = %9
  tail call void @llvm.memcpy.p0.p0.i64(ptr nonnull align 1 %11, ptr align 1 %1, i64 %2, i1 false)
  %14 = getelementptr inbounds nuw i8, ptr %0, i64 48
  store i64 %2, ptr %14, align 8, !tbaa !26
  %15 = getelementptr inbounds nuw i8, ptr %0, i64 16
  %16 = tail call ptr @ossl_prov_digest_md(ptr noundef nonnull %15) #7
  %.not25 = icmp eq ptr %1, null
  br i1 %.not25, label %17, label %22

17:                                               ; preds = %13
  %18 = getelementptr inbounds nuw i8, ptr %0, i64 56
  %19 = load i64, ptr %18, align 8, !tbaa !27
  %20 = icmp eq i64 %19, 0
  %21 = icmp ne ptr %16, null
  %or.cond = select i1 %20, i1 %21, i1 false
  br i1 %or.cond, label %22, label %28

22:                                               ; preds = %17, %13
  %23 = getelementptr inbounds nuw i8, ptr %0, i64 8
  %24 = load ptr, ptr %23, align 8, !tbaa !3
  %25 = trunc i64 %2 to i32
  %26 = tail call ptr @ossl_prov_digest_engine(ptr noundef nonnull %15) #7
  %27 = tail call i32 @HMAC_Init_ex(ptr noundef %24, ptr noundef %1, i32 noundef %25, ptr noundef %16, ptr noundef %26) #7
  br label %28

28:                                               ; preds = %17, %9, %22
  %.0 = phi i32 [ %27, %22 ], [ 0, %9 ], [ 1, %17 ]
  ret i32 %.0
}